; Function Attrs: nounwind uwtable
define internal range(i32 0, 2) i32 @test_PACKET_get_net_3() #0 {
  %1 = tail call i32 @test_true(ptr noundef nonnull @.str.25, i32 noundef 104, ptr noundef nonnull @.str.34, i32 noundef 1) #6
  %.not = icmp eq i32 %1, 0
  br i1 %.not, label %30, label %PACKET_get_net_3.exit

PACKET_get_net_3.exit:                            ; preds = %0
  %2 = load i8, ptr @smbuf, align 16, !tbaa !4
  %3 = load i8, ptr getelementptr inbounds nuw (i8, ptr @smbuf, i64 1), align 1, !tbaa !4
  %4 = load i8, ptr getelementptr inbounds nuw (i8, ptr @smbuf, i64 2), align 2, !tbaa !4
  %5 = tail call i32 @test_true(ptr noundef nonnull @.str.25, i32 noundef 105, ptr noundef nonnull @.str.59, i32 noundef 1) #6
  %.not1 = icmp eq i32 %5, 0
  br i1 %.not1, label %30, label %6

6:                                                ; preds = %PACKET_get_net_3.exit
  %7 = zext i8 %3 to i64
  %8 = shl nuw nsw i64 %7, 8
  %9 = zext i8 %2 to i64
  %10 = shl nuw nsw i64 %9, 16
  %11 = or disjoint i64 %8, %10
  %12 = zext i8 %4 to i64
  %13 = or disjoint i64 %11, %12
  %14 = tail call i32 @test_ulong_eq(ptr noundef nonnull @.str.25, i32 noundef 106, ptr noundef nonnull @.str.47, ptr noundef nonnull @.str.60, i64 noundef %13, i64 noundef 132102) #6
  %.not2 = icmp eq i32 %14, 0
  br i1 %.not2, label %30, label %PACKET_forward.exit

PACKET_forward.exit:                              ; preds = %6
  %15 = tail call i32 @test_true(ptr noundef nonnull @.str.25, i32 noundef 107, ptr noundef nonnull @.str.61, i32 noundef 1) #6
  %.not3 = icmp eq i32 %15, 0
  br i1 %.not3, label %30, label %PACKET_get_net_3.exit10

PACKET_get_net_3.exit10:                          ; preds = %PACKET_forward.exit
  %16 = load i8, ptr getelementptr inbounds nuw (i8, ptr @smbuf, i64 252), align 4, !tbaa !4
  %17 = load i8, ptr getelementptr inbounds nuw (i8, ptr @smbuf, i64 253), align 1, !tbaa !4
  %18 = load i8, ptr getelementptr inbounds nuw (i8, ptr @smbuf, i64 254), align 2, !tbaa !4
  %19 = tail call i32 @test_true(ptr noundef nonnull @.str.25, i32 noundef 108, ptr noundef nonnull @.str.59, i32 noundef 1) #6
  %.not4 = icmp eq i32 %19, 0
  br i1 %.not4, label %30, label %20

20:                                               ; preds = %PACKET_get_net_3.exit10
  %21 = zext i8 %17 to i64
  %22 = shl nuw nsw i64 %21, 8
  %23 = zext i8 %16 to i64
  %24 = shl nuw nsw i64 %23, 16
  %25 = or disjoint i64 %22, %24
  %26 = zext i8 %18 to i64
  %27 = or disjoint i64 %25, %26
  %28 = tail call i32 @test_ulong_eq(ptr noundef nonnull @.str.25, i32 noundef 109, ptr noundef nonnull @.str.47, ptr noundef nonnull @.str.62, i64 noundef %27, i64 noundef 16448766) #6
  %.not5 = icmp eq i32 %28, 0
  br i1 %.not5, label %30, label %PACKET_get_net_3.exit13

PACKET_get_net_3.exit13:                          ; preds = %20
  %29 = tail call i32 @test_false(ptr noundef nonnull @.str.25, i32 noundef 110, ptr noundef nonnull @.str.59, i32 noundef 0) #6
  %.not6 = icmp ne i32 %29, 0
  %spec.select = zext i1 %.not6 to i32
  br label %30

30:                                               ; preds = %PACKET_get_net_3.exit13, %0, %PACKET_get_net_3.exit, %6, %PACKET_forward.exit, %PACKET_get_net_3.exit10, %20
  %.0 = phi i32 [ 0, %20 ], [ 0, %PACKET_get_net_3.exit10 ], [ 0, %PACKET_forward.exit ], [ 0, %6 ], [ 0, %PACKET_get_net_3.exit ], [ 0, %0 ], [ %spec.select, %PACKET_get_net_3.exit13 ]
  ret i32 %.0
}